; Function Attrs: mustprogress uwtable
define hidden void @_ZN4cvc58internal6theory8booleans29ProofCircuitPropagatorForwardC2EPNS0_11NodeManagerEPNS0_16ProofNodeManagerENS0_12NodeTemplateILb1EEEbS9_(ptr noundef nonnull align 8 dereferenceable(40) initializes((0, 25), (32, 40)) %0, ptr noundef %1, ptr noundef %2, ptr noundef readonly captures(none) %3, i1 noundef zeroext %4, ptr noundef readonly captures(none) %5) unnamed_addr #5 align 2 personality ptr @__gxx_personality_v0 {
  %7 = zext i1 %4 to i8
  store ptr %1, ptr %0, align 8, !tbaa !3
  %8 = getelementptr inbounds nuw i8, ptr %0, i64 8
  store ptr %2, ptr %8, align 8, !tbaa !10
  %9 = getelementptr inbounds nuw i8, ptr %0, i64 16
  %10 = load ptr, ptr %3, align 8, !tbaa !11
  store ptr %10, ptr %9, align 8, !tbaa !11
  %11 = load i64, ptr %10, align 8
  %12 = lshr i64 %11, 40
  %13 = trunc nuw nsw i64 %12 to i32
  %14 = and i32 %13, 1048575
  %15 = icmp samesign ult i32 %14, 1048574
  br i1 %15, label %16, label %21, !prof !14

16:                                               ; preds = %6
  %17 = add i64 %11, 1099511627776
  %18 = and i64 %17, 1152920405095219200
  %19 = and i64 %11, -1152920405095219201
  %20 = or disjoint i64 %18, %19
  store i64 %20, ptr %10, align 8
  br label %_ZN4cvc58internal12NodeTemplateILb1EEC2ERKS2_.exit

21:                                               ; preds = %6
  %22 = icmp eq i32 %14, 1048574
  br i1 %22, label %23, label %_ZN4cvc58internal12NodeTemplateILb1EEC2ERKS2_.exit, !prof !15

23:                                               ; preds = %21
  %24 = or i64 %11, 1152920405095219200
  store i64 %24, ptr %10, align 8
  tail call void @_ZN4cvc58internal4expr9NodeValue20markRefCountMaxedOutEv(ptr noundef nonnull align 8 dereferenceable(24) %10)
  br label %_ZN4cvc58internal12NodeTemplateILb1EEC2ERKS2_.exit

_ZN4cvc58internal12NodeTemplateILb1EEC2ERKS2_.exit: ; preds = %16, %21, %23
  %25 = getelementptr inbounds nuw i8, ptr %0, i64 24
  store i8 %7, ptr %25, align 8, !tbaa !248
  %26 = getelementptr inbounds nuw i8, ptr %0, i64 32
  %27 = load ptr, ptr %5, align 8, !tbaa !11
  store ptr %27, ptr %26, align 8, !tbaa !11
  %28 = load i64, ptr %27, align 8
  %29 = lshr i64 %28, 40
  %30 = trunc nuw nsw i64 %29 to i32
  %31 = and i32 %30, 1048575
  %32 = icmp samesign ult i32 %31, 1048574
  br i1 %32, label %33, label %38, !prof !14

33:                                               ; preds = %_ZN4cvc58internal12NodeTemplateILb1EEC2ERKS2_.exit
  %34 = add i64 %28, 1099511627776
  %35 = and i64 %34, 1152920405095219200
  %36 = and i64 %28, -1152920405095219201
  %37 = or disjoint i64 %35, %36
  store i64 %37, ptr %27, align 8
  br label %_ZN4cvc58internal12NodeTemplateILb1EEC2ERKS2_.exit5

38:                                               ; preds = %_ZN4cvc58internal12NodeTemplateILb1EEC2ERKS2_.exit
  %39 = icmp eq i32 %31, 1048574
  br i1 %39, label %40, label %_ZN4cvc58internal12NodeTemplateILb1EEC2ERKS2_.exit5, !prof !15

40:                                               ; preds = %38
  %41 = or i64 %28, 1152920405095219200
  store i64 %41, ptr %27, align 8
  invoke void @_ZN4cvc58internal4expr9NodeValue20markRefCountMaxedOutEv(ptr noundef nonnull align 8 dereferenceable(24) %27)
          to label %_ZN4cvc58internal12NodeTemplateILb1EEC2ERKS2_.exit5 unwind label %42

_ZN4cvc58internal12NodeTemplateILb1EEC2ERKS2_.exit5: ; preds = %38, %33, %40
  ret void

42:                                               ; preds = %40
  %43 = landingpad { ptr, i32 }
          cleanup
  tail call void @_ZN4cvc58internal12NodeTemplateILb1EED2Ev(ptr noundef nonnull align 8 dereferenceable(8) %9) #22
  resume { ptr, i32 } %43
}